; ModuleID = '48/1458.c'
source_filename = "48/1458.c"
target datalayout = "e-m:e-p270:32:32-p271:32:32-p272:64:64-i64:64-f80:128-n8:16:32:64-S128"
target triple = "x86_64-pc-linux-gnu"

@.str = private unnamed_addr constant [5 x i8] c"%d%d\00", align 1
@.str.1 = private unnamed_addr constant [4 x i8] c"%d \00", align 1
@.str.2 = private unnamed_addr constant [4 x i8] c"%d\0A\00", align 1

; Function Attrs: noinline nounwind uwtable
define dso_local i32 @main() #0 {
  %1 = alloca i32, align 4
  %2 = alloca i32, align 4
  %3 = alloca i32, align 4
  %4 = alloca i32, align 4
  %5 = alloca i32, align 4
  %6 = alloca i32, align 4
  %7 = alloca i32, align 4
  %8 = alloca i32, align 4
  %9 = alloca i32, align 4
  %10 = alloca [9 x [9 x i32]], align 16
  %11 = alloca [9 x [9 x i32]], align 16
  store i32 0, i32* %1, align 4
  store i32 9, i32* %2, align 4
  %12 = call i32 (i8*, ...) @__isoc99_scanf(i8* getelementptr inbounds ([5 x i8], [5 x i8]* @.str, i64 0, i64 0), i32* %6, i32* %7)
  %13 = getelementptr inbounds [9 x [9 x i32]], [9 x [9 x i32]]* %10, i64 0, i64 0
  %14 = bitcast [9 x i32]* %13 to i8*
  call void @llvm.memset.p0i8.i64(i8* align 16 %14, i8 0, i64 324, i1 false)
  %15 = load i32, i32* %6, align 4
  %16 = getelementptr inbounds [9 x [9 x i32]], [9 x [9 x i32]]* %10, i64 0, i64 4
  %17 = getelementptr inbounds [9 x i32], [9 x i32]* %16, i64 0, i64 4
  store i32 %15, i32* %17, align 16
  store i32 0, i32* %5, align 4
  br label %18

18:                                               ; preds = %95, %0
  %19 = load i32, i32* %5, align 4
  %20 = load i32, i32* %7, align 4
  %21 = icmp slt i32 %19, %20
  br i1 %21, label %22, label %98

22:                                               ; preds = %18
  %23 = getelementptr inbounds [9 x [9 x i32]], [9 x [9 x i32]]* %11, i64 0, i64 0
  %24 = bitcast [9 x i32]* %23 to i8*
  call void @llvm.memset.p0i8.i64(i8* align 16 %24, i8 0, i64 324, i1 false)
  store i32 1, i32* %3, align 4
  br label %25

25:                                               ; preds = %87, %22
  %26 = load i32, i32* %3, align 4
  %27 = icmp slt i32 %26, 8
  br i1 %27, label %28, label %90

28:                                               ; preds = %25
  store i32 1, i32* %4, align 4
  br label %29

29:                                               ; preds = %83, %28
  %30 = load i32, i32* %4, align 4
  %31 = icmp slt i32 %30, 8
  br i1 %31, label %32, label %86

32:                                               ; preds = %29
  %33 = load i32, i32* %3, align 4
  %34 = sext i32 %33 to i64
  %35 = getelementptr inbounds [9 x [9 x i32]], [9 x [9 x i32]]* %10, i64 0, i64 %34
  %36 = load i32, i32* %4, align 4
  %37 = sext i32 %36 to i64
  %38 = getelementptr inbounds [9 x i32], [9 x i32]* %35, i64 0, i64 %37
  %39 = load i32, i32* %38, align 4
  %40 = load i32, i32* %3, align 4
  %41 = sext i32 %40 to i64
  %42 = getelementptr inbounds [9 x [9 x i32]], [9 x [9 x i32]]* %11, i64 0, i64 %41
  %43 = load i32, i32* %4, align 4
  %44 = sext i32 %43 to i64
  %45 = getelementptr inbounds [9 x i32], [9 x i32]* %42, i64 0, i64 %44
  %46 = load i32, i32* %45, align 4
  %47 = add nsw i32 %46, %39
  store i32 %47, i32* %45, align 4
  store i32 -1, i32* %8, align 4
  br label %48

48:                                               ; preds = %79, %32
  %49 = load i32, i32* %8, align 4
  %50 = icmp sle i32 %49, 1
  br i1 %50, label %51, label %82

51:                                               ; preds = %48
  store i32 -1, i32* %9, align 4
  br label %52

52:                                               ; preds = %75, %51
  %53 = load i32, i32* %9, align 4
  %54 = icmp sle i32 %53, 1
  br i1 %54, label %55, label %78

55:                                               ; preds = %52
  %56 = load i32, i32* %3, align 4
  %57 = sext i32 %56 to i64
  %58 = getelementptr inbounds [9 x [9 x i32]], [9 x [9 x i32]]* %10, i64 0, i64 %57
  %59 = load i32, i32* %4, align 4
  %60 = sext i32 %59 to i64
  %61 = getelementptr inbounds [9 x i32], [9 x i32]* %58, i64 0, i64 %60
  %62 = load i32, i32* %61, align 4
  %63 = load i32, i32* %3, align 4
  %64 = load i32, i32* %8, align 4
  %65 = add nsw i32 %63, %64
  %66 = sext i32 %65 to i64
  %67 = getelementptr inbounds [9 x [9 x i32]], [9 x [9 x i32]]* %11, i64 0, i64 %66
  %68 = load i32, i32* %4, align 4
  %69 = load i32, i32* %9, align 4
  %70 = add nsw i32 %68, %69
  %71 = sext i32 %70 to i64
  %72 = getelementptr inbounds [9 x i32], [9 x i32]* %67, i64 0, i64 %71
  %73 = load i32, i32* %72, align 4
  %74 = add nsw i32 %73, %62
  store i32 %74, i32* %72, align 4
  br label %75

75:                                               ; preds = %55
  %76 = load i32, i32* %9, align 4
  %77 = add nsw i32 %76, 1
  store i32 %77, i32* %9, align 4
  br label %52

78:                                               ; preds = %52
  br label %79

79:                                               ; preds = %78
  %80 = load i32, i32* %8, align 4
  %81 = add nsw i32 %80, 1
  store i32 %81, i32* %8, align 4
  br label %48

82:                                               ; preds = %48
  br label %83

83:                                               ; preds = %82
  %84 = load i32, i32* %4, align 4
  %85 = add nsw i32 %84, 1
  store i32 %85, i32* %4, align 4
  br label %29

86:                                               ; preds = %29
  br label %87

87:                                               ; preds = %86
  %88 = load i32, i32* %3, align 4
  %89 = add nsw i32 %88, 1
  store i32 %89, i32* %3, align 4
  br label %25

90:                                               ; preds = %25
  %91 = getelementptr inbounds [9 x [9 x i32]], [9 x [9 x i32]]* %10, i64 0, i64 0
  %92 = bitcast [9 x i32]* %91 to i8*
  %93 = getelementptr inbounds [9 x [9 x i32]], [9 x [9 x i32]]* %11, i64 0, i64 0
  %94 = bitcast [9 x i32]* %93 to i8*
  call void @llvm.memcpy.p0i8.p0i8.i64(i8* align 16 %92, i8* align 16 %94, i64 324, i1 false)
  br label %95

95:                                               ; preds = %90
  %96 = load i32, i32* %5, align 4
  %97 = add nsw i32 %96, 1
  store i32 %97, i32* %5, align 4
  br label %18

98:                                               ; preds = %18
  store i32 0, i32* %3, align 4
  br label %99

99:                                               ; preds = %125, %98
  %100 = load i32, i32* %3, align 4
  %101 = icmp slt i32 %100, 9
  br i1 %101, label %102, label %128

102:                                              ; preds = %99
  store i32 0, i32* %4, align 4
  br label %103

103:                                              ; preds = %115, %102
  %104 = load i32, i32* %4, align 4
  %105 = icmp slt i32 %104, 8
  br i1 %105, label %106, label %118

106:                                              ; preds = %103
  %107 = load i32, i32* %3, align 4
  %108 = sext i32 %107 to i64
  %109 = getelementptr inbounds [9 x [9 x i32]], [9 x [9 x i32]]* %10, i64 0, i64 %108
  %110 = load i32, i32* %4, align 4
  %111 = sext i32 %110 to i64
  %112 = getelementptr inbounds [9 x i32], [9 x i32]* %109, i64 0, i64 %111
  %113 = load i32, i32* %112, align 4
  %114 = call i32 (i8*, ...) @printf(i8* getelementptr inbounds ([4 x i8], [4 x i8]* @.str.1, i64 0, i64 0), i32 %113)
  br label %115

115:                                              ; preds = %106
  %116 = load i32, i32* %4, align 4
  %117 = add nsw i32 %116, 1
  store i32 %117, i32* %4, align 4
  br label %103

118:                                              ; preds = %103
  %119 = load i32, i32* %3, align 4
  %120 = sext i32 %119 to i64
  %121 = getelementptr inbounds [9 x [9 x i32]], [9 x [9 x i32]]* %10, i64 0, i64 %120
  %122 = getelementptr inbounds [9 x i32], [9 x i32]* %121, i64 0, i64 8
  %123 = load i32, i32* %122, align 4
  %124 = call i32 (i8*, ...) @printf(i8* getelementptr inbounds ([4 x i8], [4 x i8]* @.str.2, i64 0, i64 0), i32 %123)
  br label %125

125:                                              ; preds = %118
  %126 = load i32, i32* %3, align 4
  %127 = add nsw i32 %126, 1
  store i32 %127, i32* %3, align 4
  br label %99

128:                                              ; preds = %99
  ret i32 0
}

declare dso_local i32 @__isoc99_scanf(i8*, ...) #1

; Function Attrs: argmemonly nounwind willreturn
declare void @llvm.memset.p0i8.i64(i8* nocapture writeonly, i8, i64, i1 immarg) #2

; Function Attrs: argmemonly nounwind willreturn
declare void @llvm.memcpy.p0i8.p0i8.i64(i8* noalias nocapture writeonly, i8* noalias nocapture readonly, i64, i1 immarg) #2

declare dso_local i32 @printf(i8*, ...) #1


!llvm.module.flags = !{!0}
!llvm.ident = !{!1}

!0 = !{i32 1, !"wchar_size", i32 4}
!1 = !{!"clang version 10.0.0-4ubuntu1 "}
